(lp0
VQSUBJECT
p1
aVEMCEEFILLER
p2
aVintro
p3
aVexpensive
p4
aVdecline
p5
aVend
p6
aVsit
p7
aVperform
p8
aVDESSERT
p9
aVDRINK
p10
aVpoetry
p11
aVQPOET
p12
aVSUBJECTFILLER
p13
aVFRIEND
p14
aVbegin
p15
aS'zzz'
p16
aVQEMCEE
p17
aVQDRINK
p18
aVQDESSERT
p19
aVDESSERTFILLER
p20
aVEMCEE
p21
aVDRINKFILLER
p22
aVQFRIEND
p23
aVPOETFILLER
p24
aS'?'
p25
aVgoodbye
p26
aVPOET
p27
aVFRIENDFILLER
p28
aVorder
p29
aVSUBJECT
p30
a.