(lp0
S'Sarah'
p1
aVQSUBJECT
p2
aS'tea'
p3
aS'sorbet'
p4
aS'Pradeep'
p5
aS'mousse'
p6
aS'juice'
p7
aVintro
p8
aS'pastry'
p9
aS'Jane'
p10
aS'John'
p11
aS'milk'
p12
aVexpensive
p13
aVdecline
p14
aVend
p15
aVsit
p16
aVperform
p17
aVDESSERT
p18
aVDRINK
p19
aS'espresso'
p20
aVpoetry
p21
aS'Olivia'
p22
aS'Anna'
p23
aVQPOET
p24
aVFRIEND
p25
aVbegin
p26
aS'zzz'
p27
aS'coffee'
p28
aS'cheesecake'
p29
aS'Bill'
p30
aVQEMCEE
p31
aS'latte'
p32
aS'water'
p33
aS'cake'
p34
aVQDRINK
p35
aS'cookie'
p36
aVQDESSERT
p37
aS'cupcake'
p38
aS'chocolate'
p39
aVEMCEE
p40
aS'Will'
p41
aS'Julian'
p42
aVQFRIEND
p43
aS'candy'
p44
aS'?'
p45
aVgoodbye
p46
aVPOET
p47
aS'Mariko'
p48
aVorder
p49
aVSUBJECT
p50
a.